; Function Attrs: mustprogress uwtable
define void @_ZN6icu_7712StringSearchC2ERKS0_(ptr noundef nonnull align 8 dereferenceable(160) %0, ptr noundef nonnull align 8 dereferenceable(160) %1) unnamed_addr #1 align 2 personality ptr @__gxx_personality_v0 {
  %3 = alloca i32, align 4
  %4 = getelementptr inbounds nuw i8, ptr %1, i64 24
  %5 = getelementptr inbounds nuw i8, ptr %1, i64 16
  %6 = load ptr, ptr %5, align 8, !tbaa !36
  tail call void @_ZN6icu_7714SearchIteratorC2ERKNS_13UnicodeStringEPNS_13BreakIteratorE(ptr noundef nonnull align 8 dereferenceable(88) %0, ptr noundef nonnull align 8 dereferenceable(64) %4, ptr noundef %6)
  store ptr getelementptr inbounds nuw inrange(-16, 112) (i8, ptr @_ZTVN6icu_7712StringSearchE, i64 16), ptr %0, align 8, !tbaa !3
  %7 = getelementptr inbounds nuw i8, ptr %0, i64 88
  %8 = getelementptr inbounds nuw i8, ptr %1, i64 88
  invoke void @_ZN6icu_7713UnicodeStringC1ERKS0_(ptr noundef nonnull align 8 dereferenceable(64) %7, ptr noundef nonnull align 8 dereferenceable(64) %8)
          to label %9 unwind label %18

9:                                                ; preds = %2
  call void @llvm.lifetime.start.p0(i64 4, ptr nonnull %3) #9
  store i32 0, ptr %3, align 4, !tbaa !6
  %10 = getelementptr inbounds nuw i8, ptr %0, i64 8
  %11 = load ptr, ptr %10, align 8, !tbaa !24
  invoke void @uprv_free_77(ptr noundef %11)
          to label %12 unwind label %20

12:                                               ; preds = %9
  store ptr null, ptr %10, align 8, !tbaa !24
  %13 = getelementptr inbounds nuw i8, ptr %1, i64 152
  %14 = load ptr, ptr %13, align 8, !tbaa !9
  %15 = icmp eq ptr %14, null
  br i1 %15, label %16, label %22

16:                                               ; preds = %12
  %17 = getelementptr inbounds nuw i8, ptr %0, i64 152
  store ptr null, ptr %17, align 8, !tbaa !9
  br label %67

18:                                               ; preds = %2
  %19 = landingpad { ptr, i32 }
          cleanup
  br label %68

20:                                               ; preds = %50, %9
  %21 = landingpad { ptr, i32 }
          cleanup
  call void @llvm.lifetime.end.p0(i64 4, ptr nonnull %3) #9
  call void @_ZN6icu_7713UnicodeStringD1Ev(ptr noundef nonnull align 8 dereferenceable(64) %7) #9
  br label %68

22:                                               ; preds = %12
  %23 = getelementptr inbounds nuw i8, ptr %0, i64 96
  %24 = load i16, ptr %23, align 8, !tbaa !19
  %25 = and i16 %24, 17
  %.not.i = icmp eq i16 %25, 0
  br i1 %.not.i, label %26, label %33

26:                                               ; preds = %22
  %27 = and i16 %24, 2
  %.not2.i = icmp eq i16 %27, 0
  br i1 %.not2.i, label %30, label %28

28:                                               ; preds = %26
  %29 = getelementptr inbounds nuw i8, ptr %0, i64 98
  br label %33

30:                                               ; preds = %26
  %31 = getelementptr inbounds nuw i8, ptr %0, i64 112
  %32 = load ptr, ptr %31, align 8, !tbaa !19
  br label %33

33:                                               ; preds = %30, %28, %22
  %.0.i = phi ptr [ %29, %28 ], [ %32, %30 ], [ null, %22 ]
  %34 = icmp slt i16 %24, 0
  %35 = ashr i16 %24, 5
  %36 = sext i16 %35 to i32
  %37 = getelementptr inbounds nuw i8, ptr %0, i64 100
  %38 = load i32, ptr %37, align 4
  %39 = select i1 %34, i32 %38, i32 %36
  %40 = getelementptr inbounds nuw i8, ptr %0, i64 32
  %41 = load i16, ptr %40, align 8, !tbaa !19
  %42 = and i16 %41, 17
  %.not.i10 = icmp eq i16 %42, 0
  br i1 %.not.i10, label %43, label %50

43:                                               ; preds = %33
  %44 = and i16 %41, 2
  %.not2.i12 = icmp eq i16 %44, 0
  br i1 %.not2.i12, label %47, label %45

45:                                               ; preds = %43
  %46 = getelementptr inbounds nuw i8, ptr %0, i64 34
  br label %50

47:                                               ; preds = %43
  %48 = getelementptr inbounds nuw i8, ptr %0, i64 48
  %49 = load ptr, ptr %48, align 8, !tbaa !19
  br label %50

50:                                               ; preds = %47, %45, %33
  %.0.i11 = phi ptr [ %46, %45 ], [ %49, %47 ], [ null, %33 ]
  %51 = icmp slt i16 %41, 0
  %52 = ashr i16 %41, 5
  %53 = sext i16 %52 to i32
  %54 = getelementptr inbounds nuw i8, ptr %0, i64 36
  %55 = load i32, ptr %54, align 4
  %56 = select i1 %51, i32 %55, i32 %53
  %57 = getelementptr inbounds nuw i8, ptr %14, i64 3128
  %58 = load ptr, ptr %57, align 8, !tbaa !37
  %59 = load ptr, ptr %5, align 8, !tbaa !36
  %60 = invoke ptr @usearch_openFromCollator_77(ptr noundef %.0.i, i32 noundef %39, ptr noundef %.0.i11, i32 noundef %56, ptr noundef %58, ptr noundef %59, ptr noundef nonnull %3)
          to label %61 unwind label %20

61:                                               ; preds = %50
  %62 = getelementptr inbounds nuw i8, ptr %0, i64 152
  store ptr %60, ptr %62, align 8, !tbaa !9
  %63 = load i32, ptr %3, align 4, !tbaa !6
  %64 = icmp sgt i32 %63, 0
  br i1 %64, label %67, label %65

65:                                               ; preds = %61
  %66 = load ptr, ptr %60, align 8, !tbaa !25
  store ptr %66, ptr %10, align 8, !tbaa !24
  br label %67

67:                                               ; preds = %61, %65, %16
  call void @llvm.lifetime.end.p0(i64 4, ptr nonnull %3) #9
  ret void

68:                                               ; preds = %20, %18
  %.pn = phi { ptr, i32 } [ %21, %20 ], [ %19, %18 ]
  call void @_ZN6icu_7714SearchIteratorD2Ev(ptr noundef nonnull align 8 dereferenceable(88) %0) #9
  resume { ptr, i32 } %.pn
}